Certificate:
    Data:
        Version: 3 (0x2)
        Serial Number: 0 (0x0)
    Signature Algorithm: sha1WithRSAEncryption
        Issuer: O=Tizen Association, OU=Tizen Association, CN=Partner Class Developer Root
        Validity
            Not Before: Jan  1 00:00:00 2012 GMT
            Not After : Jan  1 00:00:00 2032 GMT
        Subject: O=Tizen Association, OU=Tizen Association, CN=Partner Class Developer Root
        Subject Public Key Info:
            Public Key Algorithm: rsaEncryption
                Public-Key: (2048 bit)
                Modulus:
                    00:f4:b7:19:e8:18:06:fa:e5:48:04:bf:7e:b8:16:
                    7e:77:ba:26:ec:39:b5:3f:2f:8f:5a:89:99:d3:e8:
                    32:88:a5:00:02:d6:d0:35:45:aa:27:61:48:c3:3e:
                    25:00:64:fd:e0:fc:b0:ef:3e:4d:8c:92:38:b5:ca:
                    fe:c0:fe:cd:55:f4:5e:d4:27:07:af:90:86:85:81:
                    d8:29:cd:d1:11:97:1a:45:12:58:e0:0d:7c:8c:79:
                    71:f2:b6:72:d8:d5:4f:4d:33:20:87:c7:66:7d:a4:
                    63:d4:75:bc:8b:0c:5f:52:3a:21:cd:f9:ee:09:d9:
                    43:c7:17:c2:17:4e:94:0e:d5:89:47:35:84:76:c0:
                    64:db:cb:14:68:cd:8a:19:d2:a6:ef:df:8e:18:a1:
                    f0:6f:8d:c9:d6:d2:94:34:24:82:10:b6:40:b8:f5:
                    ec:53:98:7c:a6:d3:25:68:27:8e:99:8a:40:99:f2:
                    6d:03:67:1d:18:62:1b:39:12:2b:b2:34:cd:90:ab:
                    0b:d8:c3:32:f0:76:61:ca:d0:18:7b:19:ad:0d:d4:
                    17:2d:e3:0d:06:77:3a:7b:94:04:10:51:92:61:be:
                    6b:91:53:6c:a3:56:83:f9:a7:a6:95:cc:21:bc:59:
                    6b:d6:0a:f6:43:a7:66:df:48:88:ae:8a:8a:e6:51:
                    20:33
                Exponent: 65537 (0x10001)
        X509v3 extensions:
            X509v3 Basic Constraints: 
                CA:TRUE
    Signature Algorithm: sha1WithRSAEncryption
         6c:c3:9b:e0:d4:07:d3:fd:af:0e:4f:2a:b6:bd:a7:c2:cd:cb:
         62:80:50:9b:04:c0:35:22:97:07:72:c4:0c:b0:81:3f:11:02:
         0f:21:0e:11:91:1f:86:fc:78:89:b6:77:92:04:e2:f1:f1:02:
         ca:9f:c4:df:fa:fe:2b:31:cf:0d:c6:98:7a:da:cc:d1:e8:d5:
         12:29:f2:ab:71:97:e2:52:d6:b6:c3:83:95:fa:c0:ed:44:f6:
         5d:05:ef:47:5d:59:b3:15:58:93:b3:25:89:74:9a:31:08:a2:
         3b:34:f8:ce:5d:74:d3:35:ac:b4:f3:04:c4:36:de:da:dd:12:
         cc:ad:86:7c:8c:46:f2:a2:29:dd:a0:12:62:75:93:e8:16:79:
         5e:99:6a:7d:d8:2a:a6:14:f7:86:5d:e6:a3:d3:c3:34:94:bf:
         d8:26:66:1e:5c:2c:f9:12:49:84:15:6c:de:a9:90:f0:93:f1:
         b4:3b:80:2e:7f:b6:84:af:2a:c0:7f:2e:72:d3:c6:6a:f8:24:
         06:bc:5d:2e:48:a9:ce:79:15:7c:9e:1f:6a:10:cf:99:47:36:
         23:4f:7b:62:1b:e7:d6:2e:35:e0:97:48:ba:1d:57:54:8a:80:
         e1:0d:50:46:1b:53:a0:ce:ff:d5:61:9a:5f:2b:ac:3a:25:be:
         af:b7:07:b4
-----BEGIN CERTIFICATE-----
MIIDSTCCAjGgAwIBAgIBADANBgkqhkiG9w0BAQUFADBfMRowGAYDVQQKDBFUaXpl
biBBc3NvY2lhdGlvbjEaMBgGA1UECwwRVGl6ZW4gQXNzb2NpYXRpb24xJTAjBgNV
BAMMHFBhcnRuZXIgQ2xhc3MgRGV2ZWxvcGVyIFJvb3QwHhcNMTIwMTAxMDAwMDAw
WhcNMzIwMTAxMDAwMDAwWjBfMRowGAYDVQQKDBFUaXplbiBBc3NvY2lhdGlvbjEa
MBgGA1UECwwRVGl6ZW4gQXNzb2NpYXRpb24xJTAjBgNVBAMMHFBhcnRuZXIgQ2xh
c3MgRGV2ZWxvcGVyIFJvb3QwggEiMA0GCSqGSIb3DQEBAQUAA4IBDwAwggEKAoIB
AQD0txnoGAb65UgEv364Fn53uibsObU/L49aiZnT6DKIpQAC1tA1RaonYUjDPiUA
ZP3g/LDvPk2Mkji1yv7A/s1V9F7UJwevkIaFgdgpzdERlxpFEljgDXyMeXHytnLY
1U9NMyCHx2Z9pGPUdbyLDF9SOiHN+e4J2UPHF8IXTpQO1YlHNYR2wGTbyxRozYoZ
0qbv344YofBvjcnW0pQ0JIIQtkC49exTmHym0yVoJ46ZikCZ8m0DZx0YYhs5Eiuy
NM2QqwvYwzLwdmHK0Bh7Ga0N1Bct4w0Gdzp7lAQQUZJhvmuRU2yjVoP5p6aVzCG8
WWvWCvZDp2bfSIiuiormUSAzAgMBAAGjEDAOMAwGA1UdEwQFMAMBAf8wDQYJKoZI
hvcNAQEFBQADggEBAGzDm+DUB9P9rw5PKra9p8LNy2KAUJsEwDUilwdyxAywgT8R
Ag8hDhGRH4b8eIm2d5IE4vHxAsqfxN/6/isxzw3GmHrazNHo1RIp8qtxl+JS1rbD
g5X6wO1E9l0F70ddWbMVWJOzJYl0mjEIojs0+M5ddNM1rLTzBMQ23trdEsythnyM
RvKiKd2gEmJ1k+gWeV6Zan3YKqYU94Zd5qPTwzSUv9gmZh5cLPkSSYQVbN6pkPCT
8bQ7gC5/toSvKsB/LnLTxmr4JAa8XS5Iqc55FXyeH2oQz5lHNiNPe2Ib59YuNeCX
SLodV1SKgOENUEYbU6DO/9Vhml8rrDolvq+3B7Q=
-----END CERTIFICATE-----
