Certificate:
    Data:
        Version: 3 (0x2)
        Serial Number: 0 (0x0)
    Signature Algorithm: sha1WithRSAEncryption
        Issuer: O=Tizen Association, OU=Tizen Association, CN=Tizen Developers Root
        Validity
            Not Before: Jan  1 00:00:00 2012 GMT
            Not After : Jan  1 00:00:00 2032 GMT
        Subject: O=Tizen Association, OU=Tizen Association, CN=Tizen Developers Root
        Subject Public Key Info:
            Public Key Algorithm: rsaEncryption
                Public-Key: (2048 bit)
                Modulus:
                    00:a7:6a:c2:c1:74:d8:87:6f:2f:71:a8:17:58:b2:
                    1e:56:d1:2f:5c:0e:44:79:34:7d:52:72:f8:0f:3c:
                    9d:ee:12:2a:f2:b9:31:2d:b2:0c:30:e7:02:ad:73:
                    13:73:b6:c4:1f:6b:70:15:a4:ee:5f:1c:8a:5c:c5:
                    bf:d9:cf:a2:77:79:b7:67:50:79:71:a0:aa:c1:23:
                    eb:ef:6a:0a:3d:22:38:8d:29:2f:ac:00:b9:5b:b1:
                    07:c7:5e:8c:f3:5f:1a:1b:8b:50:91:72:14:06:10:
                    eb:b5:29:87:e9:d1:4e:76:df:33:1a:ad:9f:6a:78:
                    f5:b0:44:df:52:65:c0:78:b1:84:ec:e4:18:70:46:
                    f6:4a:85:86:5d:1e:f9:62:d7:e9:d4:b0:30:fc:bd:
                    e5:ba:e1:bf:91:bc:c1:72:b6:6d:d4:2b:f4:e6:37:
                    c2:3f:9e:f9:7a:8a:5e:ea:9e:69:f3:41:a5:d2:d8:
                    9e:5f:23:d8:85:22:d5:4c:bc:21:11:d5:b1:d7:c0:
                    8c:68:2e:c8:5d:0a:36:06:6f:89:76:30:c7:d1:1b:
                    a1:fe:f4:d1:9e:31:6d:99:50:7e:9c:13:99:35:5c:
                    cc:1c:d3:8f:51:51:4a:4a:0c:ac:5f:ff:8f:94:ce:
                    23:05:3b:db:69:39:cf:09:95:24:0b:f3:bb:e6:d6:
                    08:a7
                Exponent: 65537 (0x10001)
        X509v3 extensions:
            X509v3 Basic Constraints: 
                CA:TRUE
    Signature Algorithm: sha1WithRSAEncryption
         70:f7:98:9b:72:e0:22:2a:90:04:a8:13:32:4d:9b:4e:7f:4a:
         24:85:28:bd:35:87:ec:fc:01:48:3c:b1:f9:44:49:e1:b5:09:
         0f:98:ab:2f:0e:9d:b5:39:27:73:ac:51:0b:e3:6a:d5:f7:82:
         bd:f1:00:a1:0f:db:46:3b:a3:30:a7:56:47:33:73:68:ef:f3:
         cb:0b:71:1e:94:ec:26:9f:87:6b:dc:a3:c6:76:3b:d0:35:2c:
         0a:45:b9:46:87:41:e3:9f:87:c8:fa:cb:6e:74:52:cb:bf:a9:
         5d:08:b2:29:03:f4:ac:81:ff:46:b9:46:dc:8d:30:bc:39:60:
         58:3d:55:10:e9:8a:17:01:cb:87:6d:f8:6b:e9:ad:88:5d:14:
         e3:94:95:02:b7:7a:96:c9:c8:8f:d8:7f:d1:fa:83:41:4a:3b:
         65:ab:5d:d9:4f:e0:fd:01:03:26:20:6f:f9:c3:5b:4a:d0:7c:
         c3:46:13:91:7d:69:4a:0a:8e:49:2a:7d:00:89:0a:b6:7f:0b:
         68:07:42:50:10:74:4a:08:a6:58:5a:08:46:e3:51:ee:29:cf:
         36:c4:b7:fa:1f:bc:76:e1:75:8e:02:55:db:d1:2a:6f:54:43:
         53:d6:2f:3d:5c:da:e3:5d:2e:26:a1:d2:18:e7:8e:6b:62:32:
         35:6a:67:cb
-----BEGIN CERTIFICATE-----
MIIDOzCCAiOgAwIBAgIBADANBgkqhkiG9w0BAQUFADBYMRowGAYDVQQKDBFUaXpl
biBBc3NvY2lhdGlvbjEaMBgGA1UECwwRVGl6ZW4gQXNzb2NpYXRpb24xHjAcBgNV
BAMMFVRpemVuIERldmVsb3BlcnMgUm9vdDAeFw0xMjAxMDEwMDAwMDBaFw0zMjAx
MDEwMDAwMDBaMFgxGjAYBgNVBAoMEVRpemVuIEFzc29jaWF0aW9uMRowGAYDVQQL
DBFUaXplbiBBc3NvY2lhdGlvbjEeMBwGA1UEAwwVVGl6ZW4gRGV2ZWxvcGVycyBS
b290MIIBIjANBgkqhkiG9w0BAQEFAAOCAQ8AMIIBCgKCAQEAp2rCwXTYh28vcagX
WLIeVtEvXA5EeTR9UnL4Dzyd7hIq8rkxLbIMMOcCrXMTc7bEH2twFaTuXxyKXMW/
2c+id3m3Z1B5caCqwSPr72oKPSI4jSkvrAC5W7EHx16M818aG4tQkXIUBhDrtSmH
6dFOdt8zGq2fanj1sETfUmXAeLGE7OQYcEb2SoWGXR75Ytfp1LAw/L3luuG/kbzB
crZt1Cv05jfCP575eope6p5p80Gl0tieXyPYhSLVTLwhEdWx18CMaC7IXQo2Bm+J
djDH0Ruh/vTRnjFtmVB+nBOZNVzMHNOPUVFKSgysX/+PlM4jBTvbaTnPCZUkC/O7
5tYIpwIDAQABoxAwDjAMBgNVHRMEBTADAQH/MA0GCSqGSIb3DQEBBQUAA4IBAQBw
95ibcuAiKpAEqBMyTZtOf0okhSi9NYfs/AFIPLH5REnhtQkPmKsvDp21OSdzrFEL
42rV94K98QChD9tGO6Mwp1ZHM3No7/PLC3EelOwmn4dr3KPGdjvQNSwKRblGh0Hj
n4fI+studFLLv6ldCLIpA/Ssgf9GuUbcjTC8OWBYPVUQ6YoXAcuHbfhr6a2IXRTj
lJUCt3qWyciP2H/R+oNBSjtlq13ZT+D9AQMmIG/5w1tK0HzDRhORfWlKCo5JKn0A
iQq2fwtoB0JQEHRKCKZYWghG41HuKc82xLf6H7x24XWOAlXb0SpvVENT1i89XNrj
XS4modIY545rYjI1amfL
-----END CERTIFICATE-----
