Certificate:
    Data:
        Version: 3 (0x2)
        Serial Number: 0 (0x0)
    Signature Algorithm: sha1WithRSAEncryption
        Issuer: O=Tizen Association, OU=Tizen Association, CN=Public Class Developer Root
        Validity
            Not Before: Jan  1 00:00:00 2012 GMT
            Not After : Jan  1 00:00:00 2032 GMT
        Subject: O=Tizen Association, OU=Tizen Association, CN=Public Class Developer Root
        Subject Public Key Info:
            Public Key Algorithm: rsaEncryption
                Public-Key: (2048 bit)
                Modulus:
                    00:9a:d5:19:d0:45:86:60:2c:dd:a9:b8:cf:6c:d1:
                    07:8c:0c:6f:40:01:ea:64:af:18:ce:5b:6c:8f:28:
                    cf:bd:64:2d:68:e6:9a:e9:05:64:85:63:06:4d:aa:
                    cb:5f:a7:cd:b2:9e:50:1b:b9:a9:d7:2f:af:41:d3:
                    92:77:73:7f:55:3b:74:89:2a:7b:6e:8a:e5:68:70:
                    c5:09:25:22:46:eb:86:81:d6:8d:54:2c:b1:f2:09:
                    5d:7e:93:5a:48:df:ac:b2:d4:31:63:7e:f8:04:72:
                    22:df:d7:2c:b6:5a:9a:ae:4a:bd:7e:ef:7f:19:5b:
                    42:7f:cf:5d:d5:d6:7f:f6:fe:dd:59:48:91:e2:d6:
                    f6:2a:85:48:25:2b:c7:ef:c5:b9:04:ee:9d:70:1a:
                    20:ba:03:d4:e2:69:1f:79:0a:4b:d1:8c:09:e9:e3:
                    19:40:c8:29:68:7c:71:9b:d0:00:75:f7:5e:0a:32:
                    81:33:58:4d:96:ee:17:60:21:e2:99:bb:42:3d:88:
                    91:c3:41:3e:c7:7b:c9:fd:ed:a8:ae:92:b7:14:b9:
                    d3:a0:9b:60:74:6b:b8:9c:98:43:80:08:f1:91:5a:
                    63:b6:2c:8d:ac:ea:c9:a3:ca:12:f7:54:7c:43:4b:
                    ea:4e:f2:54:97:96:fa:84:72:fa:dc:ba:0e:1f:3c:
                    18:35
                Exponent: 65537 (0x10001)
        X509v3 extensions:
            X509v3 Basic Constraints: 
                CA:TRUE
    Signature Algorithm: sha1WithRSAEncryption
         6f:d6:84:24:a0:7a:c5:0b:97:8b:34:19:44:9d:1d:73:97:45:
         01:2d:61:46:c1:80:6b:0b:32:f3:03:63:89:86:c4:62:28:c2:
         e5:e2:bf:5d:10:6e:1a:ec:14:2f:b0:f6:53:15:f1:4d:fe:49:
         4a:13:8f:17:bb:7b:1c:ff:8e:24:ce:a6:f0:8f:52:c5:f6:c5:
         a6:12:92:ed:04:e8:c6:63:55:57:d1:11:be:77:ee:75:0c:fb:
         b2:4e:cd:70:66:4b:a0:9d:0e:63:b9:e0:f4:fb:66:9d:11:b5:
         03:11:26:92:ae:32:0d:0b:b3:ba:59:b5:8e:6a:02:c8:92:d7:
         21:5f:40:af:ea:40:34:75:09:89:d3:ad:55:24:62:91:8b:64:
         18:88:ed:72:89:ac:f5:3b:3d:fb:1e:0d:42:9f:ce:0a:e6:f1:
         7d:a8:79:95:cd:d7:fe:54:33:ed:7f:de:05:ca:db:e2:c3:c0:
         50:dc:ec:bc:07:79:27:19:fc:2f:52:74:56:9c:12:e1:ac:69:
         bb:14:2a:d9:98:0c:19:e0:34:b2:e0:38:9b:c7:07:60:78:77:
         c5:f5:aa:30:8f:41:f3:42:93:91:b9:f4:d7:37:0b:91:41:db:
         b1:26:93:ca:92:57:99:80:b3:30:83:97:a9:63:bb:de:f8:12:
         d4:26:84:fb
-----BEGIN CERTIFICATE-----
MIIDRzCCAi+gAwIBAgIBADANBgkqhkiG9w0BAQUFADBeMRowGAYDVQQKDBFUaXpl
biBBc3NvY2lhdGlvbjEaMBgGA1UECwwRVGl6ZW4gQXNzb2NpYXRpb24xJDAiBgNV
BAMMG1B1YmxpYyBDbGFzcyBEZXZlbG9wZXIgUm9vdDAeFw0xMjAxMDEwMDAwMDBa
Fw0zMjAxMDEwMDAwMDBaMF4xGjAYBgNVBAoMEVRpemVuIEFzc29jaWF0aW9uMRow
GAYDVQQLDBFUaXplbiBBc3NvY2lhdGlvbjEkMCIGA1UEAwwbUHVibGljIENsYXNz
IERldmVsb3BlciBSb290MIIBIjANBgkqhkiG9w0BAQEFAAOCAQ8AMIIBCgKCAQEA
mtUZ0EWGYCzdqbjPbNEHjAxvQAHqZK8YzltsjyjPvWQtaOaa6QVkhWMGTarLX6fN
sp5QG7mp1y+vQdOSd3N/VTt0iSp7borlaHDFCSUiRuuGgdaNVCyx8gldfpNaSN+s
stQxY374BHIi39cstlqarkq9fu9/GVtCf89d1dZ/9v7dWUiR4tb2KoVIJSvH78W5
BO6dcBogugPU4mkfeQpL0YwJ6eMZQMgpaHxxm9AAdfdeCjKBM1hNlu4XYCHimbtC
PYiRw0E+x3vJ/e2orpK3FLnToJtgdGu4nJhDgAjxkVpjtiyNrOrJo8oS91R8Q0vq
TvJUl5b6hHL63LoOHzwYNQIDAQABoxAwDjAMBgNVHRMEBTADAQH/MA0GCSqGSIb3
DQEBBQUAA4IBAQBv1oQkoHrFC5eLNBlEnR1zl0UBLWFGwYBrCzLzA2OJhsRiKMLl
4r9dEG4a7BQvsPZTFfFN/klKE48Xu3sc/44kzqbwj1LF9sWmEpLtBOjGY1VX0RG+
d+51DPuyTs1wZkugnQ5jueD0+2adEbUDESaSrjINC7O6WbWOagLIktchX0Cv6kA0
dQmJ061VJGKRi2QYiO1yiaz1Oz37Hg1Cn84K5vF9qHmVzdf+VDPtf94Fytviw8BQ
3Oy8B3knGfwvUnRWnBLhrGm7FCrZmAwZ4DSy4DibxwdgeHfF9aowj0HzQpORufTX
NwuRQduxJpPKkleZgLMwg5epY7ve+BLUJoT7
-----END CERTIFICATE-----
