Certificate:
    Data:
        Version: 3 (0x2)
        Serial Number: 0 (0x0)
    Signature Algorithm: sha1WithRSAEncryption
        Issuer: O=Tizen Association, OU=Tizen Association, CN=Platform Class Developer Root
        Validity
            Not Before: Jan  1 00:00:00 2012 GMT
            Not After : Jan  1 00:00:00 2032 GMT
        Subject: O=Tizen Association, OU=Tizen Association, CN=Platform Class Developer Root
        Subject Public Key Info:
            Public Key Algorithm: rsaEncryption
                Public-Key: (2048 bit)
                Modulus:
                    00:b8:0e:c2:8d:e0:29:98:97:6d:68:a2:57:65:88:
                    4b:f2:25:dd:ec:78:68:8c:b0:ff:bf:6d:7e:01:84:
                    84:0f:3f:9d:94:50:c5:c2:10:4f:c1:6d:92:a9:e3:
                    a6:85:04:f0:cf:9c:58:09:90:b9:e0:1b:51:94:bd:
                    06:71:03:1b:c6:36:1c:09:b6:ef:d3:be:af:63:5f:
                    77:e0:7a:b2:fe:19:fe:42:78:02:69:ca:18:6d:34:
                    2f:27:e1:42:cc:f9:68:4b:9a:b1:29:b3:53:79:9e:
                    ea:a6:29:b6:ec:f1:29:ba:76:b0:20:3d:2a:b4:bd:
                    9d:29:50:3e:b8:35:9d:4b:4a:91:c4:7f:40:d0:c9:
                    0d:0c:64:94:27:da:fa:22:ce:5a:62:4f:e6:d9:23:
                    92:67:5d:48:5a:f4:c3:6a:6f:7a:a3:d5:fa:e4:ab:
                    68:b3:32:25:a8:92:80:c4:3d:41:2d:c8:92:26:65:
                    8a:82:c1:4c:ef:37:47:af:70:55:64:07:a0:c2:b2:
                    aa:49:7b:5e:1e:2d:39:8a:4a:7c:75:cc:d1:82:63:
                    9c:28:cf:4c:4f:01:dc:51:31:c8:f1:40:00:12:6c:
                    17:90:66:d4:d9:4c:df:5f:46:4b:8e:7b:61:c8:7e:
                    31:cf:02:8d:8e:b0:83:3e:00:4c:69:1d:67:0a:e6:
                    33:19
                Exponent: 65537 (0x10001)
        X509v3 extensions:
            X509v3 Basic Constraints: 
                CA:TRUE
    Signature Algorithm: sha1WithRSAEncryption
         06:31:c6:e3:3d:4c:fc:7b:42:26:28:e2:f3:f0:d4:7a:9b:37:
         d8:17:b4:df:82:aa:35:3e:0e:f1:b1:61:b3:b2:fc:b4:c1:c9:
         66:98:78:3c:13:76:94:b0:60:bb:0d:87:9e:7a:01:23:ae:77:
         97:26:3b:19:79:7e:7b:02:78:df:9d:d9:24:f0:06:26:9a:49:
         59:14:17:98:5f:eb:56:bc:3f:26:df:1e:dc:ba:79:eb:71:52:
         c2:31:65:95:f7:75:0b:c0:70:bd:87:51:83:6c:0a:4e:7a:df:
         1c:16:ec:36:b5:b0:df:86:93:f8:c8:97:da:41:d7:41:2f:0b:
         22:3c:57:1d:64:41:be:ac:db:84:53:5c:85:1c:c9:a9:50:5a:
         4d:76:60:52:bc:82:3d:97:16:24:e4:e3:41:90:af:9b:56:a7:
         98:ff:84:f0:84:70:41:c8:a6:94:3d:f8:91:33:ac:7a:23:45:
         5b:d2:e4:1d:c5:db:e0:8b:33:c2:b6:41:bd:a4:f7:19:54:09:
         1d:7d:d0:94:bc:5b:43:56:97:b2:a8:d3:bd:a5:bf:c5:83:4d:
         ef:ed:c4:bd:ec:0a:f3:8a:c4:25:ef:57:dd:30:c9:4a:89:95:
         ac:90:2d:91:6e:1b:ea:c8:80:5f:7f:7d:b8:5b:80:ed:f0:42:
         3d:02:06:b0
-----BEGIN CERTIFICATE-----
MIIDSzCCAjOgAwIBAgIBADANBgkqhkiG9w0BAQUFADBgMRowGAYDVQQKDBFUaXpl
biBBc3NvY2lhdGlvbjEaMBgGA1UECwwRVGl6ZW4gQXNzb2NpYXRpb24xJjAkBgNV
BAMMHVBsYXRmb3JtIENsYXNzIERldmVsb3BlciBSb290MB4XDTEyMDEwMTAwMDAw
MFoXDTMyMDEwMTAwMDAwMFowYDEaMBgGA1UECgwRVGl6ZW4gQXNzb2NpYXRpb24x
GjAYBgNVBAsMEVRpemVuIEFzc29jaWF0aW9uMSYwJAYDVQQDDB1QbGF0Zm9ybSBD
bGFzcyBEZXZlbG9wZXIgUm9vdDCCASIwDQYJKoZIhvcNAQEBBQADggEPADCCAQoC
ggEBALgOwo3gKZiXbWiiV2WIS/Il3ex4aIyw/79tfgGEhA8/nZRQxcIQT8Ftkqnj
poUE8M+cWAmQueAbUZS9BnEDG8Y2HAm279O+r2Nfd+B6sv4Z/kJ4AmnKGG00Lyfh
Qsz5aEuasSmzU3me6qYptuzxKbp2sCA9KrS9nSlQPrg1nUtKkcR/QNDJDQxklCfa
+iLOWmJP5tkjkmddSFr0w2pveqPV+uSraLMyJaiSgMQ9QS3IkiZlioLBTO83R69w
VWQHoMKyqkl7Xh4tOYpKfHXM0YJjnCjPTE8B3FExyPFAABJsF5Bm1NlM319GS457
Ych+Mc8CjY6wgz4ATGkdZwrmMxkCAwEAAaMQMA4wDAYDVR0TBAUwAwEB/zANBgkq
hkiG9w0BAQUFAAOCAQEABjHG4z1M/HtCJiji8/DUeps32Be034KqNT4O8bFhs7L8
tMHJZph4PBN2lLBguw2HnnoBI653lyY7GXl+ewJ4353ZJPAGJppJWRQXmF/rVrw/
Jt8e3Lp563FSwjFllfd1C8BwvYdRg2wKTnrfHBbsNrWw34aT+MiX2kHXQS8LIjxX
HWRBvqzbhFNchRzJqVBaTXZgUryCPZcWJOTjQZCvm1anmP+E8IRwQcimlD34kTOs
eiNFW9LkHcXb4IszwrZBvaT3GVQJHX3QlLxbQ1aXsqjTvaW/xYNN7+3EvewK84rE
Je9X3TDJSomVrJAtkW4b6siAX399uFuA7fBCPQIGsA==
-----END CERTIFICATE-----
